; Function Attrs: nounwind uwtable
define range(i32 0, 2) i32 @X509v3_addr_validate_resource_set(ptr noundef %0, ptr noundef %1, i32 noundef %2) local_unnamed_addr #1 {
  %4 = icmp eq ptr %1, null
  br i1 %4, label %X509v3_addr_inherits.exit, label %5

5:                                                ; preds = %3
  %6 = icmp eq ptr %0, null
  br i1 %6, label %X509v3_addr_inherits.exit, label %7

7:                                                ; preds = %5
  %8 = tail call i32 @OPENSSL_sk_num(ptr noundef nonnull %0) #15
  %9 = icmp eq i32 %8, 0
  br i1 %9, label %X509v3_addr_inherits.exit, label %10

10:                                               ; preds = %7
  %.not = icmp eq i32 %2, 0
  br i1 %.not, label %.preheader.i, label %X509v3_addr_inherits.exit.thread

.preheader.i:                                     ; preds = %10
  %11 = tail call i32 @OPENSSL_sk_num(ptr noundef nonnull %1) #15
  %12 = icmp sgt i32 %11, 0
  br i1 %12, label %.lr.ph.i, label %X509v3_addr_inherits.exit.thread

13:                                               ; preds = %.lr.ph.i
  %14 = add nuw nsw i32 %.0911.i, 1
  %15 = tail call i32 @OPENSSL_sk_num(ptr noundef nonnull %1) #15
  %16 = icmp slt i32 %14, %15
  br i1 %16, label %.lr.ph.i, label %X509v3_addr_inherits.exit.thread, !llvm.loop !53

.lr.ph.i:                                         ; preds = %.preheader.i, %13
  %.0911.i = phi i32 [ %14, %13 ], [ 0, %.preheader.i ]
  %17 = tail call ptr @OPENSSL_sk_value(ptr noundef nonnull %1, i32 noundef %.0911.i) #15
  %18 = getelementptr inbounds nuw i8, ptr %17, i64 8
  %19 = load ptr, ptr %18, align 8, !tbaa !17
  %20 = load i32, ptr %19, align 8, !tbaa !18
  %.not.i = icmp eq i32 %20, 0
  br i1 %.not.i, label %X509v3_addr_inherits.exit, label %13

X509v3_addr_inherits.exit.thread:                 ; preds = %13, %.preheader.i, %10
  %21 = tail call fastcc i32 @addr_validate_path_internal(ptr noundef null, ptr noundef nonnull %0, ptr noundef nonnull %1)
  br label %X509v3_addr_inherits.exit

X509v3_addr_inherits.exit:                        ; preds = %.lr.ph.i, %5, %7, %3, %X509v3_addr_inherits.exit.thread
  %.0 = phi i32 [ %21, %X509v3_addr_inherits.exit.thread ], [ 1, %3 ], [ 0, %7 ], [ 0, %5 ], [ 0, %.lr.ph.i ]
  ret i32 %.0
}